target datalayout = "e-m:e-p270:32:32-p271:32:32-p272:64:64-i64:64-i128:128-f80:128-n8:16:32:64-S128"
target triple = "x86_64-pc-linux-gnu"

%struct.AVCodecContext = type { ptr, i32, i32, ptr, i32, i32, ptr, ptr, ptr, i64, i32, i32, ptr, i32, %struct.AVRational, %struct.AVRational, %struct.AVRational, i32, i32, i32, i32, i32, %struct.AVRational, i32, i32, i32, i32, i32, i32, i32, i32, i32, i32, i32, ptr, ptr, i32, float, float, float, float, float, float, float, float, float, i32, i32, i32, i32, i32, i32, i32, i32, i32, i32, i32, i32, ptr, ptr, ptr, i32, i32, i32, i32, i32, i32, i32, i32, i32, i32, %struct.AVChannelLayout, i32, i32, i32, i32, i32, i32, i32, i32, ptr, i32, i32, i32, float, float, i32, i32, i32, i32, i32, ptr, i64, i64, float, float, i32, i32, ptr, ptr, i32, i32, i32, i32, i32, ptr, ptr, ptr, ptr, i32, i32, [8 x i64], i32, i32, i32, i32, i32, i32, i32, ptr, ptr, i32, i32, i32, i32, i32, i32, i32, i32, i32, i32, ptr, ptr, i32, i32, ptr, ptr, ptr, ptr, i32, i32, i64, i32, i32, i64, ptr, i64, ptr, i32, ptr, i32 }
%struct.AVRational = type { i32, i32 }
%struct.AVChannelLayout = type { i32, i32, %union.anon.0, ptr }
%union.anon.0 = type { i64 }
%struct.AnsiContext = type { ptr, i32, i32, i32, i32, ptr, i32, i32, i32, i32, i32, i32, [4 x i32], i32 }
%struct.AVFrame = type { [8 x ptr], [8 x i32], ptr, i32, i32, i32, i32, i32, %struct.AVRational, i64, i64, %struct.AVRational, i32, ptr, i32, i32, [8 x ptr], ptr, i32, ptr, i32, i32, i32, i32, i32, i32, i32, i64, ptr, i32, ptr, ptr, i64, i64, i64, i64, ptr, %struct.AVChannelLayout, i64 }

; Function Attrs: nounwind uwtable
define internal void @hscroll(ptr noundef %0) #1 {
  %2 = alloca ptr, align 8
  %3 = alloca ptr, align 8
  %4 = alloca i32, align 4
  %5 = alloca i32, align 4
  store ptr %0, ptr %2, align 8, !tbaa !4
  call void @llvm.lifetime.start.p0(i64 8, ptr %3) #7
  %6 = load ptr, ptr %2, align 8, !tbaa !4
  %7 = getelementptr inbounds nuw %struct.AVCodecContext, ptr %6, i32 0, i32 6
  %8 = load ptr, ptr %7, align 8, !tbaa !9
  store ptr %8, ptr %3, align 8, !tbaa !29
  call void @llvm.lifetime.start.p0(i64 4, ptr %4) #7
  %9 = load ptr, ptr %3, align 8, !tbaa !29
  %10 = getelementptr inbounds nuw %struct.AnsiContext, ptr %9, i32 0, i32 2
  %11 = load i32, ptr %10, align 4, !tbaa !70
  %12 = load ptr, ptr %2, align 8, !tbaa !4
  %13 = getelementptr inbounds nuw %struct.AVCodecContext, ptr %12, i32 0, i32 19
  %14 = load i32, ptr %13, align 4, !tbaa !39
  %15 = load ptr, ptr %3, align 8, !tbaa !29
  %16 = getelementptr inbounds nuw %struct.AnsiContext, ptr %15, i32 0, i32 6
  %17 = load i32, ptr %16, align 8, !tbaa !35
  %18 = mul nsw i32 2, %17
  %19 = sub nsw i32 %14, %18
  %20 = icmp sle i32 %11, %19
  br i1 %20, label %21, label %29

21:                                               ; preds = %1
  %22 = load ptr, ptr %3, align 8, !tbaa !29
  %23 = getelementptr inbounds nuw %struct.AnsiContext, ptr %22, i32 0, i32 6
  %24 = load i32, ptr %23, align 8, !tbaa !35
  %25 = load ptr, ptr %3, align 8, !tbaa !29
  %26 = getelementptr inbounds nuw %struct.AnsiContext, ptr %25, i32 0, i32 2
  %27 = load i32, ptr %26, align 4, !tbaa !70
  %28 = add nsw i32 %27, %24
  store i32 %28, ptr %26, align 4, !tbaa !70
  store i32 1, ptr %5, align 4
  br label %116

29:                                               ; preds = %1
  store i32 0, ptr %4, align 4, !tbaa !40
  br label %30

30:                                               ; preds = %81, %29
  %31 = load i32, ptr %4, align 4, !tbaa !40
  %32 = load ptr, ptr %2, align 8, !tbaa !4
  %33 = getelementptr inbounds nuw %struct.AVCodecContext, ptr %32, i32 0, i32 19
  %34 = load i32, ptr %33, align 4, !tbaa !39
  %35 = load ptr, ptr %3, align 8, !tbaa !29
  %36 = getelementptr inbounds nuw %struct.AnsiContext, ptr %35, i32 0, i32 6
  %37 = load i32, ptr %36, align 8, !tbaa !35
  %38 = sub nsw i32 %34, %37
  %39 = icmp slt i32 %31, %38
  br i1 %39, label %40, label %84

40:                                               ; preds = %30
  %41 = load ptr, ptr %3, align 8, !tbaa !29
  %42 = getelementptr inbounds nuw %struct.AnsiContext, ptr %41, i32 0, i32 0
  %43 = load ptr, ptr %42, align 8, !tbaa !41
  %44 = getelementptr inbounds nuw %struct.AVFrame, ptr %43, i32 0, i32 0
  %45 = getelementptr inbounds [8 x ptr], ptr %44, i64 0, i64 0
  %46 = load ptr, ptr %45, align 8, !tbaa !48
  %47 = load i32, ptr %4, align 4, !tbaa !40
  %48 = load ptr, ptr %3, align 8, !tbaa !29
  %49 = getelementptr inbounds nuw %struct.AnsiContext, ptr %48, i32 0, i32 0
  %50 = load ptr, ptr %49, align 8, !tbaa !41
  %51 = getelementptr inbounds nuw %struct.AVFrame, ptr %50, i32 0, i32 1
  %52 = getelementptr inbounds [8 x i32], ptr %51, i64 0, i64 0
  %53 = load i32, ptr %52, align 8, !tbaa !40
  %54 = mul nsw i32 %47, %53
  %55 = sext i32 %54 to i64
  %56 = getelementptr inbounds i8, ptr %46, i64 %55
  %57 = load ptr, ptr %3, align 8, !tbaa !29
  %58 = getelementptr inbounds nuw %struct.AnsiContext, ptr %57, i32 0, i32 0
  %59 = load ptr, ptr %58, align 8, !tbaa !41
  %60 = getelementptr inbounds nuw %struct.AVFrame, ptr %59, i32 0, i32 0
  %61 = getelementptr inbounds [8 x ptr], ptr %60, i64 0, i64 0
  %62 = load ptr, ptr %61, align 8, !tbaa !48
  %63 = load i32, ptr %4, align 4, !tbaa !40
  %64 = load ptr, ptr %3, align 8, !tbaa !29
  %65 = getelementptr inbounds nuw %struct.AnsiContext, ptr %64, i32 0, i32 6
  %66 = load i32, ptr %65, align 8, !tbaa !35
  %67 = add nsw i32 %63, %66
  %68 = load ptr, ptr %3, align 8, !tbaa !29
  %69 = getelementptr inbounds nuw %struct.AnsiContext, ptr %68, i32 0, i32 0
  %70 = load ptr, ptr %69, align 8, !tbaa !41
  %71 = getelementptr inbounds nuw %struct.AVFrame, ptr %70, i32 0, i32 1
  %72 = getelementptr inbounds [8 x i32], ptr %71, i64 0, i64 0
  %73 = load i32, ptr %72, align 8, !tbaa !40
  %74 = mul nsw i32 %67, %73
  %75 = sext i32 %74 to i64
  %76 = getelementptr inbounds i8, ptr %62, i64 %75
  %77 = load ptr, ptr %2, align 8, !tbaa !4
  %78 = getelementptr inbounds nuw %struct.AVCodecContext, ptr %77, i32 0, i32 18
  %79 = load i32, ptr %78, align 8, !tbaa !38
  %80 = sext i32 %79 to i64
  call void @llvm.memcpy.p0.p0.i64(ptr align 1 %56, ptr align 1 %76, i64 %80, i1 false)
  br label %81

81:                                               ; preds = %40
  %82 = load i32, ptr %4, align 4, !tbaa !40
  %83 = add nsw i32 %82, 1
  store i32 %83, ptr %4, align 4, !tbaa !40
  br label %30, !llvm.loop !72

84:                                               ; preds = %30
  br label %85

85:                                               ; preds = %112, %84
  %86 = load i32, ptr %4, align 4, !tbaa !40
  %87 = load ptr, ptr %2, align 8, !tbaa !4
  %88 = getelementptr inbounds nuw %struct.AVCodecContext, ptr %87, i32 0, i32 19
  %89 = load i32, ptr %88, align 4, !tbaa !39
  %90 = icmp slt i32 %86, %89
  br i1 %90, label %91, label %115

91:                                               ; preds = %85
  %92 = load ptr, ptr %3, align 8, !tbaa !29
  %93 = getelementptr inbounds nuw %struct.AnsiContext, ptr %92, i32 0, i32 0
  %94 = load ptr, ptr %93, align 8, !tbaa !41
  %95 = getelementptr inbounds nuw %struct.AVFrame, ptr %94, i32 0, i32 0
  %96 = getelementptr inbounds [8 x ptr], ptr %95, i64 0, i64 0
  %97 = load ptr, ptr %96, align 8, !tbaa !48
  %98 = load i32, ptr %4, align 4, !tbaa !40
  %99 = load ptr, ptr %3, align 8, !tbaa !29
  %100 = getelementptr inbounds nuw %struct.AnsiContext, ptr %99, i32 0, i32 0
  %101 = load ptr, ptr %100, align 8, !tbaa !41
  %102 = getelementptr inbounds nuw %struct.AVFrame, ptr %101, i32 0, i32 1
  %103 = getelementptr inbounds [8 x i32], ptr %102, i64 0, i64 0
  %104 = load i32, ptr %103, align 8, !tbaa !40
  %105 = mul nsw i32 %98, %104
  %106 = sext i32 %105 to i64
  %107 = getelementptr inbounds i8, ptr %97, i64 %106
  %108 = load ptr, ptr %2, align 8, !tbaa !4
  %109 = getelementptr inbounds nuw %struct.AVCodecContext, ptr %108, i32 0, i32 18
  %110 = load i32, ptr %109, align 8, !tbaa !38
  %111 = sext i32 %110 to i64
  call void @llvm.memset.p0.i64(ptr align 1 %107, i8 0, i64 %111, i1 false)
  br label %112

112:                                              ; preds = %91
  %113 = load i32, ptr %4, align 4, !tbaa !40
  %114 = add nsw i32 %113, 1
  store i32 %114, ptr %4, align 4, !tbaa !40
  br label %85, !llvm.loop !73

115:                                              ; preds = %85
  store i32 0, ptr %5, align 4
  br label %116

116:                                              ; preds = %115, %21
  call void @llvm.lifetime.end.p0(i64 4, ptr %4) #7
  call void @llvm.lifetime.end.p0(i64 8, ptr %3) #7
  %117 = load i32, ptr %5, align 4
  switch i32 %117, label %119 [
    i32 0, label %118
    i32 1, label %118
  ]

118:                                              ; preds = %116, %116
  ret void

119:                                              ; preds = %116
  unreachable
}

; Function Attrs: nounwind uwtable
define internal void @draw_char(ptr noundef %0, i32 noundef %1) #1 {
  %3 = alloca ptr, align 8
  %4 = alloca i32, align 4
  %5 = alloca ptr, align 8
  %6 = alloca i32, align 4
  %7 = alloca i32, align 4
  %8 = alloca i32, align 4
  store ptr %0, ptr %3, align 8, !tbaa !4
  store i32 %1, ptr %4, align 4, !tbaa !40
  call void @llvm.lifetime.start.p0(i64 8, ptr %5) #7
  %9 = load ptr, ptr %3, align 8, !tbaa !4
  %10 = getelementptr inbounds nuw %struct.AVCodecContext, ptr %9, i32 0, i32 6
  %11 = load ptr, ptr %10, align 8, !tbaa !9
  store ptr %11, ptr %5, align 8, !tbaa !29
  call void @llvm.lifetime.start.p0(i64 4, ptr %6) #7
  %12 = load ptr, ptr %5, align 8, !tbaa !29
  %13 = getelementptr inbounds nuw %struct.AnsiContext, ptr %12, i32 0, i32 8
  %14 = load i32, ptr %13, align 8, !tbaa !36
  store i32 %14, ptr %6, align 4, !tbaa !40
  call void @llvm.lifetime.start.p0(i64 4, ptr %7) #7
  %15 = load ptr, ptr %5, align 8, !tbaa !29
  %16 = getelementptr inbounds nuw %struct.AnsiContext, ptr %15, i32 0, i32 9
  %17 = load i32, ptr %16, align 4, !tbaa !37
  store i32 %17, ptr %7, align 4, !tbaa !40
  %18 = load ptr, ptr %5, align 8, !tbaa !29
  %19 = getelementptr inbounds nuw %struct.AnsiContext, ptr %18, i32 0, i32 7
  %20 = load i32, ptr %19, align 4, !tbaa !71
  %21 = and i32 %20, 1
  %22 = icmp ne i32 %21, 0
  br i1 %22, label %23, label %26

23:                                               ; preds = %2
  %24 = load i32, ptr %6, align 4, !tbaa !40
  %25 = add nsw i32 %24, 8
  store i32 %25, ptr %6, align 4, !tbaa !40
  br label %26

26:                                               ; preds = %23, %2
  %27 = load ptr, ptr %5, align 8, !tbaa !29
  %28 = getelementptr inbounds nuw %struct.AnsiContext, ptr %27, i32 0, i32 7
  %29 = load i32, ptr %28, align 4, !tbaa !71
  %30 = and i32 %29, 16
  %31 = icmp ne i32 %30, 0
  br i1 %31, label %32, label %35

32:                                               ; preds = %26
  %33 = load i32, ptr %7, align 4, !tbaa !40
  %34 = add nsw i32 %33, 8
  store i32 %34, ptr %7, align 4, !tbaa !40
  br label %35

35:                                               ; preds = %32, %26
  %36 = load ptr, ptr %5, align 8, !tbaa !29
  %37 = getelementptr inbounds nuw %struct.AnsiContext, ptr %36, i32 0, i32 7
  %38 = load i32, ptr %37, align 4, !tbaa !71
  %39 = and i32 %38, 64
  %40 = icmp ne i32 %39, 0
  br i1 %40, label %41, label %48

41:                                               ; preds = %35
  br label %42

42:                                               ; preds = %41
  call void @llvm.lifetime.start.p0(i64 4, ptr %8) #7
  %43 = load i32, ptr %7, align 4, !tbaa !40
  store i32 %43, ptr %8, align 4, !tbaa !40
  %44 = load i32, ptr %6, align 4, !tbaa !40
  store i32 %44, ptr %7, align 4, !tbaa !40
  %45 = load i32, ptr %8, align 4, !tbaa !40
  store i32 %45, ptr %6, align 4, !tbaa !40
  call void @llvm.lifetime.end.p0(i64 4, ptr %8) #7
  br label %46

46:                                               ; preds = %42
  br label %47

47:                                               ; preds = %46
  br label %48

48:                                               ; preds = %47, %35
  %49 = load ptr, ptr %5, align 8, !tbaa !29
  %50 = getelementptr inbounds nuw %struct.AnsiContext, ptr %49, i32 0, i32 7
  %51 = load i32, ptr %50, align 4, !tbaa !71
  %52 = and i32 %51, 128
  %53 = icmp ne i32 %52, 0
  br i1 %53, label %54, label %56

54:                                               ; preds = %48
  %55 = load i32, ptr %7, align 4, !tbaa !40
  store i32 %55, ptr %6, align 4, !tbaa !40
  br label %56

56:                                               ; preds = %54, %48
  %57 = load ptr, ptr %5, align 8, !tbaa !29
  %58 = getelementptr inbounds nuw %struct.AnsiContext, ptr %57, i32 0, i32 0
  %59 = load ptr, ptr %58, align 8, !tbaa !41
  %60 = getelementptr inbounds nuw %struct.AVFrame, ptr %59, i32 0, i32 0
  %61 = getelementptr inbounds [8 x ptr], ptr %60, i64 0, i64 0
  %62 = load ptr, ptr %61, align 8, !tbaa !48
  %63 = load ptr, ptr %5, align 8, !tbaa !29
  %64 = getelementptr inbounds nuw %struct.AnsiContext, ptr %63, i32 0, i32 2
  %65 = load i32, ptr %64, align 4, !tbaa !70
  %66 = load ptr, ptr %5, align 8, !tbaa !29
  %67 = getelementptr inbounds nuw %struct.AnsiContext, ptr %66, i32 0, i32 0
  %68 = load ptr, ptr %67, align 8, !tbaa !41
  %69 = getelementptr inbounds nuw %struct.AVFrame, ptr %68, i32 0, i32 1
  %70 = getelementptr inbounds [8 x i32], ptr %69, i64 0, i64 0
  %71 = load i32, ptr %70, align 8, !tbaa !40
  %72 = mul nsw i32 %65, %71
  %73 = sext i32 %72 to i64
  %74 = getelementptr inbounds i8, ptr %62, i64 %73
  %75 = load ptr, ptr %5, align 8, !tbaa !29
  %76 = getelementptr inbounds nuw %struct.AnsiContext, ptr %75, i32 0, i32 1
  %77 = load i32, ptr %76, align 8, !tbaa !61
  %78 = sext i32 %77 to i64
  %79 = getelementptr inbounds i8, ptr %74, i64 %78
  %80 = load ptr, ptr %5, align 8, !tbaa !29
  %81 = getelementptr inbounds nuw %struct.AnsiContext, ptr %80, i32 0, i32 0
  %82 = load ptr, ptr %81, align 8, !tbaa !41
  %83 = getelementptr inbounds nuw %struct.AVFrame, ptr %82, i32 0, i32 1
  %84 = getelementptr inbounds [8 x i32], ptr %83, i64 0, i64 0
  %85 = load i32, ptr %84, align 8, !tbaa !40
  %86 = load ptr, ptr %5, align 8, !tbaa !29
  %87 = getelementptr inbounds nuw %struct.AnsiContext, ptr %86, i32 0, i32 5
  %88 = load ptr, ptr %87, align 8, !tbaa !32
  %89 = load ptr, ptr %5, align 8, !tbaa !29
  %90 = getelementptr inbounds nuw %struct.AnsiContext, ptr %89, i32 0, i32 6
  %91 = load i32, ptr %90, align 8, !tbaa !35
  %92 = load i32, ptr %4, align 4, !tbaa !40
  %93 = load i32, ptr %6, align 4, !tbaa !40
  %94 = load i32, ptr %7, align 4, !tbaa !40
  call void @ff_draw_pc_font(ptr noundef %79, i32 noundef %85, ptr noundef %88, i32 noundef %91, i32 noundef %92, i32 noundef %93, i32 noundef %94)
  %95 = load ptr, ptr %5, align 8, !tbaa !29
  %96 = getelementptr inbounds nuw %struct.AnsiContext, ptr %95, i32 0, i32 1
  %97 = load i32, ptr %96, align 8, !tbaa !61
  %98 = add nsw i32 %97, 8
  store i32 %98, ptr %96, align 8, !tbaa !61
  %99 = load ptr, ptr %5, align 8, !tbaa !29
  %100 = getelementptr inbounds nuw %struct.AnsiContext, ptr %99, i32 0, i32 1
  %101 = load i32, ptr %100, align 8, !tbaa !61
  %102 = load ptr, ptr %3, align 8, !tbaa !4
  %103 = getelementptr inbounds nuw %struct.AVCodecContext, ptr %102, i32 0, i32 18
  %104 = load i32, ptr %103, align 8, !tbaa !38
  %105 = sub nsw i32 %104, 8
  %106 = icmp sgt i32 %101, %105
  br i1 %106, label %107, label %111

107:                                              ; preds = %56
  %108 = load ptr, ptr %5, align 8, !tbaa !29
  %109 = getelementptr inbounds nuw %struct.AnsiContext, ptr %108, i32 0, i32 1
  store i32 0, ptr %109, align 8, !tbaa !61
  %110 = load ptr, ptr %3, align 8, !tbaa !4
  call void @hscroll(ptr noundef %110)
  br label %111

111:                                              ; preds = %107, %56
  call void @llvm.lifetime.end.p0(i64 4, ptr %7) #7
  call void @llvm.lifetime.end.p0(i64 4, ptr %6) #7
  call void @llvm.lifetime.end.p0(i64 8, ptr %5) #7
  ret void
}