; Function Attrs: nounwind uwtable
define internal fastcc void @draw_char(ptr noundef readonly captures(none) %0, i32 noundef range(i32 0, 256) %1) unnamed_addr #1 {
  %3 = getelementptr inbounds nuw i8, ptr %0, i64 32
  %4 = load ptr, ptr %3, align 8, !tbaa !4
  %5 = getelementptr inbounds nuw i8, ptr %4, i64 40
  %6 = load i32, ptr %5, align 8, !tbaa !32
  %7 = getelementptr inbounds nuw i8, ptr %4, i64 44
  %8 = load i32, ptr %7, align 4, !tbaa !33
  %9 = getelementptr inbounds nuw i8, ptr %4, i64 36
  %10 = load i32, ptr %9, align 4, !tbaa !65
  %11 = shl i32 %10, 3
  %12 = and i32 %11, 8
  %spec.select = add nsw i32 %12, %6
  %13 = lshr i32 %10, 1
  %14 = and i32 %13, 8
  %.027 = add nsw i32 %14, %8
  %15 = and i32 %10, 64
  %.not30 = icmp eq i32 %15, 0
  %.128 = select i1 %.not30, i32 %.027, i32 %spec.select
  %.1 = select i1 %.not30, i32 %spec.select, i32 %.027
  %16 = and i32 %10, 128
  %.not31 = icmp eq i32 %16, 0
  %.2 = select i1 %.not31, i32 %.1, i32 %.128
  %17 = load ptr, ptr %4, align 8, !tbaa !36
  %18 = load ptr, ptr %17, align 8, !tbaa !41
  %19 = getelementptr inbounds nuw i8, ptr %4, i64 12
  %20 = load i32, ptr %19, align 4, !tbaa !56
  %21 = getelementptr inbounds nuw i8, ptr %17, i64 64
  %22 = load i32, ptr %21, align 8, !tbaa !42
  %23 = mul nsw i32 %22, %20
  %24 = sext i32 %23 to i64
  %25 = getelementptr inbounds i8, ptr %18, i64 %24
  %26 = getelementptr inbounds nuw i8, ptr %4, i64 8
  %27 = load i32, ptr %26, align 8, !tbaa !57
  %28 = sext i32 %27 to i64
  %29 = getelementptr inbounds i8, ptr %25, i64 %28
  %30 = getelementptr inbounds nuw i8, ptr %4, i64 24
  %31 = load ptr, ptr %30, align 8, !tbaa !28
  %32 = getelementptr inbounds nuw i8, ptr %4, i64 32
  %33 = load i32, ptr %32, align 8, !tbaa !31
  tail call void @ff_draw_pc_font(ptr noundef %29, i32 noundef %22, ptr noundef %31, i32 noundef %33, i32 noundef %1, i32 noundef %.2, i32 noundef %.128) #7
  %34 = load i32, ptr %26, align 8, !tbaa !57
  %35 = add nsw i32 %34, 8
  store i32 %35, ptr %26, align 8, !tbaa !57
  %36 = getelementptr inbounds nuw i8, ptr %0, i64 112
  %37 = load i32, ptr %36, align 8, !tbaa !34
  %38 = add nsw i32 %37, -8
  %39 = icmp sgt i32 %35, %38
  br i1 %39, label %40, label %hscroll.exit

40:                                               ; preds = %2
  store i32 0, ptr %26, align 8, !tbaa !57
  %41 = load ptr, ptr %3, align 8, !tbaa !4
  %42 = getelementptr inbounds nuw i8, ptr %41, i64 12
  %43 = load i32, ptr %42, align 4, !tbaa !56
  %44 = getelementptr inbounds nuw i8, ptr %0, i64 116
  %45 = load i32, ptr %44, align 4, !tbaa !35
  %46 = getelementptr inbounds nuw i8, ptr %41, i64 32
  %47 = load i32, ptr %46, align 8, !tbaa !31
  %48 = shl nsw i32 %47, 1
  %49 = sub nsw i32 %45, %48
  %.not.i = icmp sgt i32 %43, %49
  br i1 %.not.i, label %.preheader25.i, label %51

.preheader25.i:                                   ; preds = %40
  %50 = icmp sgt i32 %45, %47
  br i1 %50, label %.lr.ph.i, label %.preheader.i

51:                                               ; preds = %40
  %52 = add nsw i32 %47, %43
  store i32 %52, ptr %42, align 4, !tbaa !56
  br label %hscroll.exit

.preheader.i:                                     ; preds = %.lr.ph.i, %.preheader25.i
  %53 = phi i32 [ %45, %.preheader25.i ], [ %70, %.lr.ph.i ]
  %.0.lcssa.i = phi i32 [ 0, %.preheader25.i ], [ %69, %.lr.ph.i ]
  %54 = icmp slt i32 %.0.lcssa.i, %53
  br i1 %54, label %.lr.ph28.i, label %hscroll.exit

.lr.ph.i:                                         ; preds = %.preheader25.i, %.lr.ph.i
  %55 = phi i32 [ %71, %.lr.ph.i ], [ %47, %.preheader25.i ]
  %.026.i = phi i32 [ %69, %.lr.ph.i ], [ 0, %.preheader25.i ]
  %56 = load ptr, ptr %41, align 8, !tbaa !36
  %57 = load ptr, ptr %56, align 8, !tbaa !41
  %58 = getelementptr inbounds nuw i8, ptr %56, i64 64
  %59 = load i32, ptr %58, align 8, !tbaa !42
  %60 = mul nsw i32 %59, %.026.i
  %61 = sext i32 %60 to i64
  %62 = getelementptr inbounds i8, ptr %57, i64 %61
  %63 = add nsw i32 %.026.i, %55
  %64 = mul nsw i32 %59, %63
  %65 = sext i32 %64 to i64
  %66 = getelementptr inbounds i8, ptr %57, i64 %65
  %67 = load i32, ptr %36, align 8, !tbaa !34
  %68 = sext i32 %67 to i64
  tail call void @llvm.memcpy.p0.p0.i64(ptr align 1 %62, ptr align 1 %66, i64 %68, i1 false)
  %69 = add nuw nsw i32 %.026.i, 1
  %70 = load i32, ptr %44, align 4, !tbaa !35
  %71 = load i32, ptr %46, align 8, !tbaa !31
  %72 = sub nsw i32 %70, %71
  %73 = icmp slt i32 %69, %72
  br i1 %73, label %.lr.ph.i, label %.preheader.i, !llvm.loop !61

.lr.ph28.i:                                       ; preds = %.preheader.i, %.lr.ph28.i
  %.127.i = phi i32 [ %83, %.lr.ph28.i ], [ %.0.lcssa.i, %.preheader.i ]
  %74 = load ptr, ptr %41, align 8, !tbaa !36
  %75 = load ptr, ptr %74, align 8, !tbaa !41
  %76 = getelementptr inbounds nuw i8, ptr %74, i64 64
  %77 = load i32, ptr %76, align 8, !tbaa !42
  %78 = mul nsw i32 %77, %.127.i
  %79 = sext i32 %78 to i64
  %80 = getelementptr inbounds i8, ptr %75, i64 %79
  %81 = load i32, ptr %36, align 8, !tbaa !34
  %82 = sext i32 %81 to i64
  tail call void @llvm.memset.p0.i64(ptr align 1 %80, i8 0, i64 %82, i1 false)
  %83 = add nuw nsw i32 %.127.i, 1
  %84 = load i32, ptr %44, align 4, !tbaa !35
  %85 = icmp slt i32 %83, %84
  br i1 %85, label %.lr.ph28.i, label %hscroll.exit, !llvm.loop !62

hscroll.exit:                                     ; preds = %.lr.ph28.i, %.preheader.i, %51, %2
  ret void
}